target datalayout = "e-m:e-p270:32:32-p271:32:32-p272:64:64-i64:64-i128:128-f80:128-n8:16:32:64-S128"
target triple = "x86_64-pc-linux-gnu"

%struct.MEMO = type { i64, i64, i64, i64, %union.anon.1 }
%union.anon.1 = type { i64 }

@.str.83 = private unnamed_addr constant [21 x i8] c"given block not used\00", align 1

; Function Attrs: inlinehint nounwind sspstrong willreturn memory(none) uwtable
define internal zeroext i1 @RB_UNDEF_P(i64 noundef %0) #6 {
  %2 = alloca i64, align 8
  store i64 %0, ptr %2, align 8, !tbaa !14
  %3 = load i64, ptr %2, align 8, !tbaa !14
  %4 = icmp eq i64 %3, 36
  ret i1 %4
}

; Function Attrs: inlinehint nounwind sspstrong uwtable
define internal ptr @MEMO_NEW(i64 noundef %0, i64 noundef %1, i64 noundef %2) #3 {
  %4 = alloca i64, align 8
  %5 = alloca i64, align 8
  %6 = alloca i64, align 8
  %7 = alloca ptr, align 8
  store i64 %0, ptr %4, align 8, !tbaa !14
  store i64 %1, ptr %5, align 8, !tbaa !14
  store i64 %2, ptr %6, align 8, !tbaa !14
  call void @llvm.lifetime.start.p0(i64 8, ptr %7) #22
  %8 = call i64 @rb_imemo_new(i32 noundef 5, i64 noundef 0, i64 noundef 40)
  %9 = inttoptr i64 %8 to ptr
  store ptr %9, ptr %7, align 8, !tbaa !34
  %10 = load i64, ptr %4, align 8, !tbaa !14
  %11 = load ptr, ptr %7, align 8, !tbaa !34
  %12 = getelementptr inbounds nuw %struct.MEMO, ptr %11, i32 0, i32 2
  store i64 %10, ptr %12, align 8, !tbaa !14
  %13 = load i64, ptr %5, align 8, !tbaa !14
  %14 = load ptr, ptr %7, align 8, !tbaa !34
  %15 = getelementptr inbounds nuw %struct.MEMO, ptr %14, i32 0, i32 3
  store i64 %13, ptr %15, align 8, !tbaa !14
  %16 = load i64, ptr %6, align 8, !tbaa !14
  %17 = load ptr, ptr %7, align 8, !tbaa !34
  %18 = getelementptr inbounds nuw %struct.MEMO, ptr %17, i32 0, i32 4
  store i64 %16, ptr %18, align 8, !tbaa !31
  %19 = load ptr, ptr %7, align 8, !tbaa !34
  call void @llvm.lifetime.end.p0(i64 8, ptr %7) #22
  ret ptr %19
}

; Function Attrs: inlinehint nounwind sspstrong uwtable
define internal i32 @rb_check_arity(i32 noundef %0, i32 noundef %1, i32 noundef %2) #3 {
  %4 = alloca i32, align 4
  %5 = alloca i32, align 4
  %6 = alloca i32, align 4
  store i32 %0, ptr %4, align 4, !tbaa !7
  store i32 %1, ptr %5, align 4, !tbaa !7
  store i32 %2, ptr %6, align 4, !tbaa !7
  %7 = load i32, ptr %4, align 4, !tbaa !7
  %8 = load i32, ptr %5, align 4, !tbaa !7
  %9 = icmp slt i32 %7, %8
  br i1 %9, label %17, label %10

10:                                               ; preds = %3
  %11 = load i32, ptr %6, align 4, !tbaa !7
  %12 = icmp ne i32 %11, -1
  br i1 %12, label %13, label %21

13:                                               ; preds = %10
  %14 = load i32, ptr %4, align 4, !tbaa !7
  %15 = load i32, ptr %6, align 4, !tbaa !7
  %16 = icmp sgt i32 %14, %15
  br i1 %16, label %17, label %21

17:                                               ; preds = %13, %3
  %18 = load i32, ptr %4, align 4, !tbaa !7
  %19 = load i32, ptr %5, align 4, !tbaa !7
  %20 = load i32, ptr %6, align 4, !tbaa !7
  call void @rb_error_arity(i32 noundef %18, i32 noundef %19, i32 noundef %20) #23
  unreachable

21:                                               ; preds = %13, %10
  %22 = load i32, ptr %4, align 4, !tbaa !7
  ret i32 %22
}

; Function Attrs: nounwind sspstrong uwtable
define internal i64 @enum_one(i32 noundef %0, ptr noundef %1, i64 noundef %2) #0 {
  %4 = alloca i64, align 8
  %5 = alloca i32, align 4
  %6 = alloca ptr, align 8
  %7 = alloca i64, align 8
  %8 = alloca ptr, align 8
  %9 = alloca i64, align 8
  %10 = alloca i32, align 4
  store i32 %0, ptr %5, align 4, !tbaa !7
  store ptr %1, ptr %6, align 8, !tbaa !11
  store i64 %2, ptr %7, align 8, !tbaa !14
  call void @llvm.lifetime.start.p0(i64 8, ptr %8) #22
  %11 = load i32, ptr %5, align 4, !tbaa !7
  %12 = call i32 @rb_check_arity(i32 noundef %11, i32 noundef 0, i32 noundef 1)
  %13 = load i32, ptr %5, align 4, !tbaa !7
  %14 = icmp ne i32 %13, 0
  br i1 %14, label %15, label %18

15:                                               ; preds = %3
  %16 = load ptr, ptr %6, align 8, !tbaa !11
  %17 = load i64, ptr %16, align 8, !tbaa !14
  br label %19

18:                                               ; preds = %3
  br label %19

19:                                               ; preds = %18, %15
  %20 = phi i64 [ %17, %15 ], [ 0, %18 ]
  %21 = call ptr @MEMO_NEW(i64 noundef 36, i64 noundef %20, i64 noundef 0)
  store ptr %21, ptr %8, align 8, !tbaa !34
  call void @llvm.lifetime.start.p0(i64 8, ptr %9) #22
  br label %22

22:                                               ; preds = %19
  %23 = load i32, ptr %5, align 4, !tbaa !7
  %24 = icmp sgt i32 %23, 0
  br i1 %24, label %25, label %29

25:                                               ; preds = %22
  %26 = call i32 @rb_block_given_p()
  %27 = icmp ne i32 %26, 0
  br i1 %27, label %28, label %29

28:                                               ; preds = %25
  call void (ptr, ...) @rb_warn(ptr noundef @.str.83) #27
  br label %29

29:                                               ; preds = %28, %25, %22
  br label %30

30:                                               ; preds = %29
  br label %31

31:                                               ; preds = %30
  %32 = load i64, ptr %7, align 8, !tbaa !14
  %33 = load i32, ptr %5, align 4, !tbaa !7
  %34 = icmp ne i32 %33, 0
  br i1 %34, label %35, label %36

35:                                               ; preds = %31
  br label %40

36:                                               ; preds = %31
  %37 = call i32 @rb_block_given_p()
  %38 = icmp ne i32 %37, 0
  %39 = select i1 %38, ptr @one_iter_i, ptr @one_i
  br label %40

40:                                               ; preds = %36, %35
  %41 = phi ptr [ @one_eqq, %35 ], [ %39, %36 ]
  %42 = load ptr, ptr %8, align 8, !tbaa !34
  %43 = ptrtoint ptr %42 to i64
  %44 = call i32 @rb_block_given_p()
  %45 = icmp ne i32 %44, 0
  br i1 %45, label %46, label %49

46:                                               ; preds = %40
  %47 = call i32 @rb_block_pair_yield_optimizable()
  %48 = icmp ne i32 %47, 0
  br label %49

49:                                               ; preds = %46, %40
  %50 = phi i1 [ false, %40 ], [ %48, %46 ]
  %51 = select i1 %50, i32 2, i32 0
  %52 = sext i32 %51 to i64
  %53 = call i64 @rb_block_call2(i64 noundef %32, i64 noundef 3073, i32 noundef 0, ptr noundef null, ptr noundef %41, i64 noundef %43, i64 noundef %52)
  %54 = load ptr, ptr %8, align 8, !tbaa !34
  %55 = getelementptr inbounds nuw %struct.MEMO, ptr %54, i32 0, i32 2
  %56 = load i64, ptr %55, align 8, !tbaa !46
  store i64 %56, ptr %9, align 8, !tbaa !14
  %57 = load i64, ptr %9, align 8, !tbaa !14
  %58 = call zeroext i1 @RB_UNDEF_P(i64 noundef %57) #25
  br i1 %58, label %59, label %60

59:                                               ; preds = %49
  store i64 0, ptr %4, align 8
  store i32 1, ptr %10, align 4
  br label %62

60:                                               ; preds = %49
  %61 = load i64, ptr %9, align 8, !tbaa !14
  store i64 %61, ptr %4, align 8
  store i32 1, ptr %10, align 4
  br label %62

62:                                               ; preds = %60, %59
  call void @llvm.lifetime.end.p0(i64 8, ptr %9) #22
  call void @llvm.lifetime.end.p0(i64 8, ptr %8) #22
  %63 = load i64, ptr %4, align 8
  ret i64 %63
}